; ModuleID = 'CMakeFiles/main.dir/main.cpp.ll'
source_filename = "llvm-link"
target datalayout = "e-m:e-p270:32:32-p271:32:32-p272:64:64-i64:64-f80:128-n8:16:32:64-S128"
target triple = "x86_64-pc-linux-gnu"

%"class.std::ios_base::Init" = type { i8 }
%"class.std::basic_ostream" = type { i32 (...)**, %"class.std::basic_ios" }
%"class.std::basic_ios" = type { %"class.std::ios_base", %"class.std::basic_ostream"*, i8, i8, %"class.std::basic_streambuf"*, %"class.std::ctype"*, %"class.std::num_put"*, %"class.std::num_put"* }
%"class.std::ios_base" = type { i32 (...)**, i64, i64, i32, i32, i32, %"struct.std::ios_base::_Callback_list"*, %"struct.std::ios_base::_Words", [8 x %"struct.std::ios_base::_Words"], i32, %"struct.std::ios_base::_Words"*, %"class.std::locale" }
%"struct.std::ios_base::_Callback_list" = type { %"struct.std::ios_base::_Callback_list"*, void (i32, %"class.std::ios_base"*, i32)*, i32, i32 }
%"struct.std::ios_base::_Words" = type { i8*, i64 }
%"class.std::locale" = type { %"class.std::locale::_Impl"* }
%"class.std::locale::_Impl" = type { i32, %"class.std::locale::facet"**, i64, %"class.std::locale::facet"**, i8** }
%"class.std::locale::facet" = type <{ i32 (...)**, i32, [4 x i8] }>
%"class.std::basic_streambuf" = type { i32 (...)**, i8*, i8*, i8*, i8*, i8*, i8*, %"class.std::locale" }
%"class.std::ctype" = type <{ %"class.std::locale::facet.base", [4 x i8], %struct.__locale_struct*, i8, [7 x i8], i32*, i32*, i16*, i8, [256 x i8], [256 x i8], i8, [6 x i8] }>
%"class.std::locale::facet.base" = type <{ i32 (...)**, i32 }>
%struct.__locale_struct = type { [13 x %struct.__locale_data*], i16*, i32*, i32*, [13 x i8*] }
%struct.__locale_data = type opaque
%"class.std::num_put" = type { %"class.std::locale::facet.base", [4 x i8] }
%"class.std::__cxx11::basic_string" = type { %"struct.std::__cxx11::basic_string<char>::_Alloc_hider", i64, %union.anon }
%"struct.std::__cxx11::basic_string<char>::_Alloc_hider" = type { i8* }
%union.anon = type { i64, [8 x i8] }

$_ZStplIcSt11char_traitsIcESaIcEENSt7__cxx1112basic_stringIT_T0_T1_EEPKS5_OS8_ = comdat any

$_ZStplIcSt11char_traitsIcESaIcEENSt7__cxx1112basic_stringIT_T0_T1_EEOS8_PKS5_ = comdat any

$_ZSt4moveIRNSt7__cxx1112basic_stringIcSt11char_traitsIcESaIcEEEEONSt16remove_referenceIT_E4typeEOS8_ = comdat any

@llvm.global_ctors = appending global [1 x { i32, void ()*, i8* }] [{ i32, void ()*, i8* } { i32 65535, void ()* @_GLOBAL__sub_I_logop.cpp, i8* null }]
@_ZStL8__ioinit = internal global %"class.std::ios_base::Init" zeroinitializer, align 1
@__dso_handle = external hidden global i8
@_ZSt4cout = external global %"class.std::basic_ostream", align 8
@.str = private unnamed_addr constant [18 x i8] c"Function called: \00", align 1
@.str.1 = private unnamed_addr constant [16 x i8] c", instruction: \00", align 1
@.str.2 = private unnamed_addr constant [2 x i8] c";\00", align 1

; Function Attrs: noinline uwtable
define internal void @_GLOBAL__sub_I_logop.cpp() #0 section ".text.startup" {
  call void @__cxx_global_var_init()
  ret void
}

; Function Attrs: noinline uwtable
define internal void @__cxx_global_var_init() #0 section ".text.startup" {
  call void @_ZNSt8ios_base4InitC1Ev(%"class.std::ios_base::Init"* noundef nonnull align 1 dereferenceable(1) @_ZStL8__ioinit)
  %1 = call i32 @__cxa_atexit(void (i8*)* bitcast (void (%"class.std::ios_base::Init"*)* @_ZNSt8ios_base4InitD1Ev to void (i8*)*), i8* getelementptr inbounds (%"class.std::ios_base::Init", %"class.std::ios_base::Init"* @_ZStL8__ioinit, i32 0, i32 0), i8* @__dso_handle) #3
  ret void
}

declare void @_ZNSt8ios_base4InitC1Ev(%"class.std::ios_base::Init"* noundef nonnull align 1 dereferenceable(1)) unnamed_addr #1

; Function Attrs: nounwind
declare void @_ZNSt8ios_base4InitD1Ev(%"class.std::ios_base::Init"* noundef nonnull align 1 dereferenceable(1)) unnamed_addr #2

; Function Attrs: nounwind
declare i32 @__cxa_atexit(void (i8*)*, i8*, i8*) #3

; Function Attrs: mustprogress noinline optnone uwtable
define dso_local void @_Z5logopPcS_(i8* noundef %0, i8* noundef %1) #4 personality i8* bitcast (i32 (...)* @__gxx_personality_v0 to i8*) {
  %3 = alloca i8*, align 8
  %4 = alloca i8*, align 8
  %5 = alloca %"class.std::__cxx11::basic_string", align 8
  %6 = alloca %"class.std::__cxx11::basic_string", align 8
  %7 = alloca %"class.std::__cxx11::basic_string", align 8
  %8 = alloca %"class.std::ios_base::Init", align 1
  %9 = alloca i8*, align 8
  %10 = alloca i32, align 4
  %11 = alloca %"class.std::__cxx11::basic_string", align 8
  %12 = alloca %"class.std::ios_base::Init", align 1
  store i8* %0, i8** %3, align 8
  store i8* %1, i8** %4, align 8
  %13 = load i8*, i8** %3, align 8
  call void @_ZNSaIcEC1Ev(%"class.std::ios_base::Init"* noundef nonnull align 1 dereferenceable(1) %8) #3
  invoke void @_ZNSt7__cxx1112basic_stringIcSt11char_traitsIcESaIcEEC1EPKcRKS3_(%"class.std::__cxx11::basic_string"* noundef nonnull align 8 dereferenceable(32) %7, i8* noundef %13, %"class.std::ios_base::Init"* noundef nonnull align 1 dereferenceable(1) %8)
          to label %14 unwind label %25

14:                                               ; preds = %2
  invoke void @_ZStplIcSt11char_traitsIcESaIcEENSt7__cxx1112basic_stringIT_T0_T1_EEPKS5_OS8_(%"class.std::__cxx11::basic_string"* sret(%"class.std::__cxx11::basic_string") align 8 %6, i8* noundef getelementptr inbounds ([18 x i8], [18 x i8]* @.str, i64 0, i64 0), %"class.std::__cxx11::basic_string"* noundef nonnull align 8 dereferenceable(32) %7)
          to label %15 unwind label %29

15:                                               ; preds = %14
  invoke void @_ZStplIcSt11char_traitsIcESaIcEENSt7__cxx1112basic_stringIT_T0_T1_EEOS8_PKS5_(%"class.std::__cxx11::basic_string"* sret(%"class.std::__cxx11::basic_string") align 8 %5, %"class.std::__cxx11::basic_string"* noundef nonnull align 8 dereferenceable(32) %6, i8* noundef getelementptr inbounds ([16 x i8], [16 x i8]* @.str.1, i64 0, i64 0))
          to label %16 unwind label %33

16:                                               ; preds = %15
  %17 = invoke noundef nonnull align 8 dereferenceable(8) %"class.std::basic_ostream"* @_ZStlsIcSt11char_traitsIcESaIcEERSt13basic_ostreamIT_T0_ES7_RKNSt7__cxx1112basic_stringIS4_S5_T1_EE(%"class.std::basic_ostream"* noundef nonnull align 8 dereferenceable(8) @_ZSt4cout, %"class.std::__cxx11::basic_string"* noundef nonnull align 8 dereferenceable(32) %5)
          to label %18 unwind label %37

18:                                               ; preds = %16
  %19 = load i8*, i8** %4, align 8
  call void @_ZNSaIcEC1Ev(%"class.std::ios_base::Init"* noundef nonnull align 1 dereferenceable(1) %12) #3
  invoke void @_ZNSt7__cxx1112basic_stringIcSt11char_traitsIcESaIcEEC1EPKcRKS3_(%"class.std::__cxx11::basic_string"* noundef nonnull align 8 dereferenceable(32) %11, i8* noundef %19, %"class.std::ios_base::Init"* noundef nonnull align 1 dereferenceable(1) %12)
          to label %20 unwind label %41

20:                                               ; preds = %18
  %21 = invoke noundef nonnull align 8 dereferenceable(8) %"class.std::basic_ostream"* @_ZStlsIcSt11char_traitsIcESaIcEERSt13basic_ostreamIT_T0_ES7_RKNSt7__cxx1112basic_stringIS4_S5_T1_EE(%"class.std::basic_ostream"* noundef nonnull align 8 dereferenceable(8) %17, %"class.std::__cxx11::basic_string"* noundef nonnull align 8 dereferenceable(32) %11)
          to label %22 unwind label %45

22:                                               ; preds = %20
  %23 = invoke noundef nonnull align 8 dereferenceable(8) %"class.std::basic_ostream"* @_ZStlsISt11char_traitsIcEERSt13basic_ostreamIcT_ES5_PKc(%"class.std::basic_ostream"* noundef nonnull align 8 dereferenceable(8) %21, i8* noundef getelementptr inbounds ([2 x i8], [2 x i8]* @.str.2, i64 0, i64 0))
          to label %24 unwind label %45

24:                                               ; preds = %22
  call void @_ZNSt7__cxx1112basic_stringIcSt11char_traitsIcESaIcEED1Ev(%"class.std::__cxx11::basic_string"* noundef nonnull align 8 dereferenceable(32) %11) #3
  call void @_ZNSaIcED1Ev(%"class.std::ios_base::Init"* noundef nonnull align 1 dereferenceable(1) %12) #3
  call void @_ZNSt7__cxx1112basic_stringIcSt11char_traitsIcESaIcEED1Ev(%"class.std::__cxx11::basic_string"* noundef nonnull align 8 dereferenceable(32) %5) #3
  call void @_ZNSt7__cxx1112basic_stringIcSt11char_traitsIcESaIcEED1Ev(%"class.std::__cxx11::basic_string"* noundef nonnull align 8 dereferenceable(32) %6) #3
  call void @_ZNSt7__cxx1112basic_stringIcSt11char_traitsIcESaIcEED1Ev(%"class.std::__cxx11::basic_string"* noundef nonnull align 8 dereferenceable(32) %7) #3
  call void @_ZNSaIcED1Ev(%"class.std::ios_base::Init"* noundef nonnull align 1 dereferenceable(1) %8) #3
  ret void

25:                                               ; preds = %2
  %26 = landingpad { i8*, i32 }
          cleanup
  %27 = extractvalue { i8*, i32 } %26, 0
  store i8* %27, i8** %9, align 8
  %28 = extractvalue { i8*, i32 } %26, 1
  store i32 %28, i32* %10, align 4
  br label %53

29:                                               ; preds = %14
  %30 = landingpad { i8*, i32 }
          cleanup
  %31 = extractvalue { i8*, i32 } %30, 0
  store i8* %31, i8** %9, align 8
  %32 = extractvalue { i8*, i32 } %30, 1
  store i32 %32, i32* %10, align 4
  br label %52

33:                                               ; preds = %15
  %34 = landingpad { i8*, i32 }
          cleanup
  %35 = extractvalue { i8*, i32 } %34, 0
  store i8* %35, i8** %9, align 8
  %36 = extractvalue { i8*, i32 } %34, 1
  store i32 %36, i32* %10, align 4
  br label %51

37:                                               ; preds = %16
  %38 = landingpad { i8*, i32 }
          cleanup
  %39 = extractvalue { i8*, i32 } %38, 0
  store i8* %39, i8** %9, align 8
  %40 = extractvalue { i8*, i32 } %38, 1
  store i32 %40, i32* %10, align 4
  br label %50

41:                                               ; preds = %18
  %42 = landingpad { i8*, i32 }
          cleanup
  %43 = extractvalue { i8*, i32 } %42, 0
  store i8* %43, i8** %9, align 8
  %44 = extractvalue { i8*, i32 } %42, 1
  store i32 %44, i32* %10, align 4
  br label %49

45:                                               ; preds = %22, %20
  %46 = landingpad { i8*, i32 }
          cleanup
  %47 = extractvalue { i8*, i32 } %46, 0
  store i8* %47, i8** %9, align 8
  %48 = extractvalue { i8*, i32 } %46, 1
  store i32 %48, i32* %10, align 4
  call void @_ZNSt7__cxx1112basic_stringIcSt11char_traitsIcESaIcEED1Ev(%"class.std::__cxx11::basic_string"* noundef nonnull align 8 dereferenceable(32) %11) #3
  br label %49

49:                                               ; preds = %45, %41
  call void @_ZNSaIcED1Ev(%"class.std::ios_base::Init"* noundef nonnull align 1 dereferenceable(1) %12) #3
  br label %50

50:                                               ; preds = %49, %37
  call void @_ZNSt7__cxx1112basic_stringIcSt11char_traitsIcESaIcEED1Ev(%"class.std::__cxx11::basic_string"* noundef nonnull align 8 dereferenceable(32) %5) #3
  br label %51

51:                                               ; preds = %50, %33
  call void @_ZNSt7__cxx1112basic_stringIcSt11char_traitsIcESaIcEED1Ev(%"class.std::__cxx11::basic_string"* noundef nonnull align 8 dereferenceable(32) %6) #3
  br label %52

52:                                               ; preds = %51, %29
  call void @_ZNSt7__cxx1112basic_stringIcSt11char_traitsIcESaIcEED1Ev(%"class.std::__cxx11::basic_string"* noundef nonnull align 8 dereferenceable(32) %7) #3
  br label %53

53:                                               ; preds = %52, %25
  call void @_ZNSaIcED1Ev(%"class.std::ios_base::Init"* noundef nonnull align 1 dereferenceable(1) %8) #3
  br label %54

54:                                               ; preds = %53
  %55 = load i8*, i8** %9, align 8
  %56 = load i32, i32* %10, align 4
  %57 = insertvalue { i8*, i32 } undef, i8* %55, 0
  %58 = insertvalue { i8*, i32 } %57, i32 %56, 1
  resume { i8*, i32 } %58
}

declare i32 @__gxx_personality_v0(...)

; Function Attrs: nounwind
declare void @_ZNSaIcEC1Ev(%"class.std::ios_base::Init"* noundef nonnull align 1 dereferenceable(1)) unnamed_addr #2

declare void @_ZNSt7__cxx1112basic_stringIcSt11char_traitsIcESaIcEEC1EPKcRKS3_(%"class.std::__cxx11::basic_string"* noundef nonnull align 8 dereferenceable(32), i8* noundef, %"class.std::ios_base::Init"* noundef nonnull align 1 dereferenceable(1)) unnamed_addr #1

; Function Attrs: mustprogress noinline optnone uwtable
define linkonce_odr dso_local void @_ZStplIcSt11char_traitsIcESaIcEENSt7__cxx1112basic_stringIT_T0_T1_EEPKS5_OS8_(%"class.std::__cxx11::basic_string"* noalias sret(%"class.std::__cxx11::basic_string") align 8 %0, i8* noundef %1, %"class.std::__cxx11::basic_string"* noundef nonnull align 8 dereferenceable(32) %2) #4 comdat {
  %4 = alloca i8*, align 8
  %5 = alloca i8*, align 8
  %6 = alloca %"class.std::__cxx11::basic_string"*, align 8
  %7 = bitcast %"class.std::__cxx11::basic_string"* %0 to i8*
  store i8* %7, i8** %4, align 8
  store i8* %1, i8** %5, align 8
  store %"class.std::__cxx11::basic_string"* %2, %"class.std::__cxx11::basic_string"** %6, align 8
  %8 = load %"class.std::__cxx11::basic_string"*, %"class.std::__cxx11::basic_string"** %6, align 8
  %9 = load i8*, i8** %5, align 8
  %10 = call noundef nonnull align 8 dereferenceable(32) %"class.std::__cxx11::basic_string"* @_ZNSt7__cxx1112basic_stringIcSt11char_traitsIcESaIcEE6insertEmPKc(%"class.std::__cxx11::basic_string"* noundef nonnull align 8 dereferenceable(32) %8, i64 noundef 0, i8* noundef %9)
  %11 = call noundef nonnull align 8 dereferenceable(32) %"class.std::__cxx11::basic_string"* @_ZSt4moveIRNSt7__cxx1112basic_stringIcSt11char_traitsIcESaIcEEEEONSt16remove_referenceIT_E4typeEOS8_(%"class.std::__cxx11::basic_string"* noundef nonnull align 8 dereferenceable(32) %10) #3
  call void @_ZNSt7__cxx1112basic_stringIcSt11char_traitsIcESaIcEEC1EOS4_(%"class.std::__cxx11::basic_string"* noundef nonnull align 8 dereferenceable(32) %0, %"class.std::__cxx11::basic_string"* noundef nonnull align 8 dereferenceable(32) %11) #3
  ret void
}

; Function Attrs: mustprogress noinline optnone uwtable
define linkonce_odr dso_local void @_ZStplIcSt11char_traitsIcESaIcEENSt7__cxx1112basic_stringIT_T0_T1_EEOS8_PKS5_(%"class.std::__cxx11::basic_string"* noalias sret(%"class.std::__cxx11::basic_string") align 8 %0, %"class.std::__cxx11::basic_string"* noundef nonnull align 8 dereferenceable(32) %1, i8* noundef %2) #4 comdat {
  %4 = alloca i8*, align 8
  %5 = alloca %"class.std::__cxx11::basic_string"*, align 8
  %6 = alloca i8*, align 8
  %7 = bitcast %"class.std::__cxx11::basic_string"* %0 to i8*
  store i8* %7, i8** %4, align 8
  store %"class.std::__cxx11::basic_string"* %1, %"class.std::__cxx11::basic_string"** %5, align 8
  store i8* %2, i8** %6, align 8
  %8 = load %"class.std::__cxx11::basic_string"*, %"class.std::__cxx11::basic_string"** %5, align 8
  %9 = load i8*, i8** %6, align 8
  %10 = call noundef nonnull align 8 dereferenceable(32) %"class.std::__cxx11::basic_string"* @_ZNSt7__cxx1112basic_stringIcSt11char_traitsIcESaIcEE6appendEPKc(%"class.std::__cxx11::basic_string"* noundef nonnull align 8 dereferenceable(32) %8, i8* noundef %9)
  %11 = call noundef nonnull align 8 dereferenceable(32) %"class.std::__cxx11::basic_string"* @_ZSt4moveIRNSt7__cxx1112basic_stringIcSt11char_traitsIcESaIcEEEEONSt16remove_referenceIT_E4typeEOS8_(%"class.std::__cxx11::basic_string"* noundef nonnull align 8 dereferenceable(32) %10) #3
  call void @_ZNSt7__cxx1112basic_stringIcSt11char_traitsIcESaIcEEC1EOS4_(%"class.std::__cxx11::basic_string"* noundef nonnull align 8 dereferenceable(32) %0, %"class.std::__cxx11::basic_string"* noundef nonnull align 8 dereferenceable(32) %11) #3
  ret void
}

declare noundef nonnull align 8 dereferenceable(8) %"class.std::basic_ostream"* @_ZStlsIcSt11char_traitsIcESaIcEERSt13basic_ostreamIT_T0_ES7_RKNSt7__cxx1112basic_stringIS4_S5_T1_EE(%"class.std::basic_ostream"* noundef nonnull align 8 dereferenceable(8), %"class.std::__cxx11::basic_string"* noundef nonnull align 8 dereferenceable(32)) #1

declare noundef nonnull align 8 dereferenceable(8) %"class.std::basic_ostream"* @_ZStlsISt11char_traitsIcEERSt13basic_ostreamIcT_ES5_PKc(%"class.std::basic_ostream"* noundef nonnull align 8 dereferenceable(8), i8* noundef) #1

; Function Attrs: nounwind
declare void @_ZNSt7__cxx1112basic_stringIcSt11char_traitsIcESaIcEED1Ev(%"class.std::__cxx11::basic_string"* noundef nonnull align 8 dereferenceable(32)) unnamed_addr #2

; Function Attrs: nounwind
declare void @_ZNSaIcED1Ev(%"class.std::ios_base::Init"* noundef nonnull align 1 dereferenceable(1)) unnamed_addr #2

declare noundef nonnull align 8 dereferenceable(32) %"class.std::__cxx11::basic_string"* @_ZNSt7__cxx1112basic_stringIcSt11char_traitsIcESaIcEE6appendEPKc(%"class.std::__cxx11::basic_string"* noundef nonnull align 8 dereferenceable(32), i8* noundef) #1

; Function Attrs: mustprogress noinline nounwind optnone uwtable
define linkonce_odr dso_local noundef nonnull align 8 dereferenceable(32) %"class.std::__cxx11::basic_string"* @_ZSt4moveIRNSt7__cxx1112basic_stringIcSt11char_traitsIcESaIcEEEEONSt16remove_referenceIT_E4typeEOS8_(%"class.std::__cxx11::basic_string"* noundef nonnull align 8 dereferenceable(32) %0) #5 comdat {
  %2 = alloca %"class.std::__cxx11::basic_string"*, align 8
  store %"class.std::__cxx11::basic_string"* %0, %"class.std::__cxx11::basic_string"** %2, align 8
  %3 = load %"class.std::__cxx11::basic_string"*, %"class.std::__cxx11::basic_string"** %2, align 8
  ret %"class.std::__cxx11::basic_string"* %3
}

; Function Attrs: nounwind
declare void @_ZNSt7__cxx1112basic_stringIcSt11char_traitsIcESaIcEEC1EOS4_(%"class.std::__cxx11::basic_string"* noundef nonnull align 8 dereferenceable(32), %"class.std::__cxx11::basic_string"* noundef nonnull align 8 dereferenceable(32)) unnamed_addr #2

declare noundef nonnull align 8 dereferenceable(32) %"class.std::__cxx11::basic_string"* @_ZNSt7__cxx1112basic_stringIcSt11char_traitsIcESaIcEE6insertEmPKc(%"class.std::__cxx11::basic_string"* noundef nonnull align 8 dereferenceable(32), i64 noundef, i8* noundef) #1

attributes #0 = { noinline uwtable "frame-pointer"="all" "min-legal-vector-width"="0" "no-trapping-math"="true" "stack-protector-buffer-size"="8" "target-cpu"="x86-64" "target-features"="+cx8,+fxsr,+mmx,+sse,+sse2,+x87" "tune-cpu"="generic" }
attributes #1 = { "frame-pointer"="all" "no-trapping-math"="true" "stack-protector-buffer-size"="8" "target-cpu"="x86-64" "target-features"="+cx8,+fxsr,+mmx,+sse,+sse2,+x87" "tune-cpu"="generic" }
attributes #2 = { nounwind "frame-pointer"="all" "no-trapping-math"="true" "stack-protector-buffer-size"="8" "target-cpu"="x86-64" "target-features"="+cx8,+fxsr,+mmx,+sse,+sse2,+x87" "tune-cpu"="generic" }
attributes #3 = { nounwind }
attributes #4 = { mustprogress noinline optnone uwtable "frame-pointer"="all" "min-legal-vector-width"="0" "no-trapping-math"="true" "stack-protector-buffer-size"="8" "target-cpu"="x86-64" "target-features"="+cx8,+fxsr,+mmx,+sse,+sse2,+x87" "tune-cpu"="generic" }
attributes #5 = { mustprogress noinline nounwind optnone uwtable "frame-pointer"="all" "min-legal-vector-width"="0" "no-trapping-math"="true" "stack-protector-buffer-size"="8" "target-cpu"="x86-64" "target-features"="+cx8,+fxsr,+mmx,+sse,+sse2,+x87" "tune-cpu"="generic" }

!llvm.ident = !{!0}
!llvm.module.flags = !{!1, !2, !3, !4, !5}

!0 = !{!"Ubuntu clang version 14.0.0-1ubuntu1"}
!1 = !{i32 1, !"wchar_size", i32 4}
!2 = !{i32 7, !"PIC Level", i32 2}
!3 = !{i32 7, !"PIE Level", i32 2}
!4 = !{i32 7, !"uwtable", i32 1}
!5 = !{i32 7, !"frame-pointer", i32 2}
